MPLINK 5.09, LINKER
Linker Map File - Created Mon Jan 18 22:00:48 2021

                                 Section Info
                  Section       Type    Address   Location Size(Bytes)
                ---------  ---------  ---------  ---------  ---------
                   .org_0       code   0x000000    program   0x000002
                   .cinit    romdata   0x000001    program   0x000004
                   .org_1       code   0x000004    program   0x000002
                   .org_2       code   0x000005    program   0x0004ee
.config_2007_BUILD/DEFAULT/PRODUCTION/ALARMAT       code   0x002007    program   0x000002



                              Program Memory Usage 
                               Start         End      
                           ---------   ---------      
                            0x000000    0x000002      
                            0x000004    0x00027b      
                            0x002007    0x002007      
            636 out of 8454 program addresses used, program memory utilization is 7%



                              Symbols - Sorted by Name
                     Name    Address   Location    Storage File                     
                ---------  ---------  ---------  --------- ---------                
                 ACEPTADO   0x0000cc    program     static C:\Users\Rebeca Alvarado\Documents\Licenciatura\7Semestre\LEnsamblador\00PAlarma\AlarmaTablero-UART.X\mensajes_tablas.asm
                 ACTIVADA   0x00021d    program     static C:\Users\Rebeca Alvarado\Documents\Licenciatura\7Semestre\LEnsamblador\00PAlarma\AlarmaTablero-UART.X\AlarmaTablero-UART.asm
                    APAGA   0x0001ad    program     static C:\Users\Rebeca Alvarado\Documents\Licenciatura\7Semestre\LEnsamblador\00PAlarma\AlarmaTablero-UART.X\AlarmaTablero-UART.asm
                   BARRE1   0x000078    program     static C:\Users\Rebeca Alvarado\Documents\Licenciatura\7Semestre\LEnsamblador\00PAlarma\AlarmaTablero-UART.X\kbd_cxx.asm
                 BARREFIN   0x00008f    program     static C:\Users\Rebeca Alvarado\Documents\Licenciatura\7Semestre\LEnsamblador\00PAlarma\AlarmaTablero-UART.X\kbd_cxx.asm
                    BLOCK   0x0000f4    program     static C:\Users\Rebeca Alvarado\Documents\Licenciatura\7Semestre\LEnsamblador\00PAlarma\AlarmaTablero-UART.X\mensajes_tablas.asm
             BORRA_Y_HOME   0x00003c    program     static C:\Users\Rebeca Alvarado\Documents\Licenciatura\7Semestre\LEnsamblador\00PAlarma\AlarmaTablero-UART.X\lcd_cxx.asm
                   CHECAR   0x00025b    program     static C:\Users\Rebeca Alvarado\Documents\Licenciatura\7Semestre\LEnsamblador\00PAlarma\AlarmaTablero-UART.X\AlarmaTablero-UART.asm
                   CODIGO   0x0000c4    program     static C:\Users\Rebeca Alvarado\Documents\Licenciatura\7Semestre\LEnsamblador\00PAlarma\AlarmaTablero-UART.X\mensajes_tablas.asm
           COMPARAR_ARRAY   0x000118    program     static C:\Users\Rebeca Alvarado\Documents\Licenciatura\7Semestre\LEnsamblador\00PAlarma\AlarmaTablero-UART.X\AlarmaTablero-UART.asm
                 CONTINUA   0x0001ae    program     static C:\Users\Rebeca Alvarado\Documents\Licenciatura\7Semestre\LEnsamblador\00PAlarma\AlarmaTablero-UART.X\AlarmaTablero-UART.asm
                     DEL1   0x000168    program     static C:\Users\Rebeca Alvarado\Documents\Licenciatura\7Semestre\LEnsamblador\00PAlarma\AlarmaTablero-UART.X\AlarmaTablero-UART.asm
                     DEL2   0x000166    program     static C:\Users\Rebeca Alvarado\Documents\Licenciatura\7Semestre\LEnsamblador\00PAlarma\AlarmaTablero-UART.X\AlarmaTablero-UART.asm
                    DELAY   0x000164    program     static C:\Users\Rebeca Alvarado\Documents\Licenciatura\7Semestre\LEnsamblador\00PAlarma\AlarmaTablero-UART.X\AlarmaTablero-UART.asm
              DESBLOQUEAR   0x0001ef    program     static C:\Users\Rebeca Alvarado\Documents\Licenciatura\7Semestre\LEnsamblador\00PAlarma\AlarmaTablero-UART.X\AlarmaTablero-UART.asm
                     DIFF   0x000137    program     static C:\Users\Rebeca Alvarado\Documents\Licenciatura\7Semestre\LEnsamblador\00PAlarma\AlarmaTablero-UART.X\AlarmaTablero-UART.asm
       DISPLAY_ON_CUR_OFF   0x00003f    program     static C:\Users\Rebeca Alvarado\Documents\Licenciatura\7Semestre\LEnsamblador\00PAlarma\AlarmaTablero-UART.X\lcd_cxx.asm
                     FINC   0x000130    program     static C:\Users\Rebeca Alvarado\Documents\Licenciatura\7Semestre\LEnsamblador\00PAlarma\AlarmaTablero-UART.X\AlarmaTablero-UART.asm
                  FIN_INT   0x000183    program     static C:\Users\Rebeca Alvarado\Documents\Licenciatura\7Semestre\LEnsamblador\00PAlarma\AlarmaTablero-UART.X\AlarmaTablero-UART.asm
                  FIN_PIN   0x0001dc    program     static C:\Users\Rebeca Alvarado\Documents\Licenciatura\7Semestre\LEnsamblador\00PAlarma\AlarmaTablero-UART.X\AlarmaTablero-UART.asm
                    GranD   0x00016d    program     static C:\Users\Rebeca Alvarado\Documents\Licenciatura\7Semestre\LEnsamblador\00PAlarma\AlarmaTablero-UART.X\AlarmaTablero-UART.asm
                HEX_ASCII   0x0000b2    program     static C:\Users\Rebeca Alvarado\Documents\Licenciatura\7Semestre\LEnsamblador\00PAlarma\AlarmaTablero-UART.X\mensajes_tablas.asm
                    IGUAL   0x000135    program     static C:\Users\Rebeca Alvarado\Documents\Licenciatura\7Semestre\LEnsamblador\00PAlarma\AlarmaTablero-UART.X\AlarmaTablero-UART.asm
             INCORRECTO_3   0x0001dd    program     static C:\Users\Rebeca Alvarado\Documents\Licenciatura\7Semestre\LEnsamblador\00PAlarma\AlarmaTablero-UART.X\AlarmaTablero-UART.asm
               INICIALIZA   0x000139    program     static C:\Users\Rebeca Alvarado\Documents\Licenciatura\7Semestre\LEnsamblador\00PAlarma\AlarmaTablero-UART.X\AlarmaTablero-UART.asm
                 INIT_RES   0x000185    program     static C:\Users\Rebeca Alvarado\Documents\Licenciatura\7Semestre\LEnsamblador\00PAlarma\AlarmaTablero-UART.X\AlarmaTablero-UART.asm
                INIT_UART   0x0000fc    program     static C:\Users\Rebeca Alvarado\Documents\Licenciatura\7Semestre\LEnsamblador\00PAlarma\AlarmaTablero-UART.X\UART_LIB.asm
                    INTER   0x000179    program     static C:\Users\Rebeca Alvarado\Documents\Licenciatura\7Semestre\LEnsamblador\00PAlarma\AlarmaTablero-UART.X\AlarmaTablero-UART.asm
                 INT_TMR0   0x00017f    program     static C:\Users\Rebeca Alvarado\Documents\Licenciatura\7Semestre\LEnsamblador\00PAlarma\AlarmaTablero-UART.X\AlarmaTablero-UART.asm
                KBD_BARRE   0x000076    program     static C:\Users\Rebeca Alvarado\Documents\Licenciatura\7Semestre\LEnsamblador\00PAlarma\AlarmaTablero-UART.X\kbd_cxx.asm
                  KBD_INI   0x00006f    program     static C:\Users\Rebeca Alvarado\Documents\Licenciatura\7Semestre\LEnsamblador\00PAlarma\AlarmaTablero-UART.X\kbd_cxx.asm
                  KBD_LCD   0x00019a    program     static C:\Users\Rebeca Alvarado\Documents\Licenciatura\7Semestre\LEnsamblador\00PAlarma\AlarmaTablero-UART.X\AlarmaTablero-UART.asm
                  KBD_LIB   0x0000ac    program     static C:\Users\Rebeca Alvarado\Documents\Licenciatura\7Semestre\LEnsamblador\00PAlarma\AlarmaTablero-UART.X\kbd_cxx.asm
                  KBD_NUM   0x000098    program     static C:\Users\Rebeca Alvarado\Documents\Licenciatura\7Semestre\LEnsamblador\00PAlarma\AlarmaTablero-UART.X\kbd_cxx.asm
                 KBD_TONO   0x0000a0    program     static C:\Users\Rebeca Alvarado\Documents\Licenciatura\7Semestre\LEnsamblador\00PAlarma\AlarmaTablero-UART.X\kbd_cxx.asm
                KBD_VALID   0x000090    program     static C:\Users\Rebeca Alvarado\Documents\Licenciatura\7Semestre\LEnsamblador\00PAlarma\AlarmaTablero-UART.X\kbd_cxx.asm
                KB_LC_FIN   0x0001a8    program     static C:\Users\Rebeca Alvarado\Documents\Licenciatura\7Semestre\LEnsamblador\00PAlarma\AlarmaTablero-UART.X\AlarmaTablero-UART.asm
                  KEY_TAB   0x00004b    program     static C:\Users\Rebeca Alvarado\Documents\Licenciatura\7Semestre\LEnsamblador\00PAlarma\AlarmaTablero-UART.X\kbd_cxx.asm
                 LCD_BUSY   0x00000c    program     static C:\Users\Rebeca Alvarado\Documents\Licenciatura\7Semestre\LEnsamblador\00PAlarma\AlarmaTablero-UART.X\lcd_cxx.asm
                 LCD_DATO   0x000027    program     static C:\Users\Rebeca Alvarado\Documents\Licenciatura\7Semestre\LEnsamblador\00PAlarma\AlarmaTablero-UART.X\lcd_cxx.asm
                LCD_DELAY   0x000042    program     static C:\Users\Rebeca Alvarado\Documents\Licenciatura\7Semestre\LEnsamblador\00PAlarma\AlarmaTablero-UART.X\lcd_cxx.asm
              LCD_DELAY_1   0x000046    program     static C:\Users\Rebeca Alvarado\Documents\Licenciatura\7Semestre\LEnsamblador\00PAlarma\AlarmaTablero-UART.X\lcd_cxx.asm
                    LCD_E   0x00001f    program     static C:\Users\Rebeca Alvarado\Documents\Licenciatura\7Semestre\LEnsamblador\00PAlarma\AlarmaTablero-UART.X\lcd_cxx.asm
                  LCD_INI   0x000032    program     static C:\Users\Rebeca Alvarado\Documents\Licenciatura\7Semestre\LEnsamblador\00PAlarma\AlarmaTablero-UART.X\lcd_cxx.asm
                  LCD_REG   0x00002d    program     static C:\Users\Rebeca Alvarado\Documents\Licenciatura\7Semestre\LEnsamblador\00PAlarma\AlarmaTablero-UART.X\lcd_cxx.asm
                    LOOP1   0x000256    program     static C:\Users\Rebeca Alvarado\Documents\Licenciatura\7Semestre\LEnsamblador\00PAlarma\AlarmaTablero-UART.X\AlarmaTablero-UART.asm
                    LOOP2   0x000278    program     static C:\Users\Rebeca Alvarado\Documents\Licenciatura\7Semestre\LEnsamblador\00PAlarma\AlarmaTablero-UART.X\AlarmaTablero-UART.asm
                   L_BUSY   0x000017    program     static C:\Users\Rebeca Alvarado\Documents\Licenciatura\7Semestre\LEnsamblador\00PAlarma\AlarmaTablero-UART.X\lcd_cxx.asm
                MSG_ERROR   0x0000d4    program     static C:\Users\Rebeca Alvarado\Documents\Licenciatura\7Semestre\LEnsamblador\00PAlarma\AlarmaTablero-UART.X\mensajes_tablas.asm
                  MatchMM   0x000129    program     static C:\Users\Rebeca Alvarado\Documents\Licenciatura\7Semestre\LEnsamblador\00PAlarma\AlarmaTablero-UART.X\AlarmaTablero-UART.asm
                     NADA   0x0000dc    program     static C:\Users\Rebeca Alvarado\Documents\Licenciatura\7Semestre\LEnsamblador\00PAlarma\AlarmaTablero-UART.X\mensajes_tablas.asm
                    NUEVO   0x0000e3    program     static C:\Users\Rebeca Alvarado\Documents\Licenciatura\7Semestre\LEnsamblador\00PAlarma\AlarmaTablero-UART.X\mensajes_tablas.asm
                NUEVO_PIN   0x0001ba    program     static C:\Users\Rebeca Alvarado\Documents\Licenciatura\7Semestre\LEnsamblador\00PAlarma\AlarmaTablero-UART.X\AlarmaTablero-UART.asm
                     NUM1   0x000099    program     static C:\Users\Rebeca Alvarado\Documents\Licenciatura\7Semestre\LEnsamblador\00PAlarma\AlarmaTablero-UART.X\kbd_cxx.asm
                   NUMFIN   0x00009f    program     static C:\Users\Rebeca Alvarado\Documents\Licenciatura\7Semestre\LEnsamblador\00PAlarma\AlarmaTablero-UART.X\kbd_cxx.asm
                     PASS   0x00026a    program     static C:\Users\Rebeca Alvarado\Documents\Licenciatura\7Semestre\LEnsamblador\00PAlarma\AlarmaTablero-UART.X\AlarmaTablero-UART.asm
                  PIN_MAL   0x0001f6    program     static C:\Users\Rebeca Alvarado\Documents\Licenciatura\7Semestre\LEnsamblador\00PAlarma\AlarmaTablero-UART.X\AlarmaTablero-UART.asm
                   PIN_OK   0x00020a    program     static C:\Users\Rebeca Alvarado\Documents\Licenciatura\7Semestre\LEnsamblador\00PAlarma\AlarmaTablero-UART.X\AlarmaTablero-UART.asm
                  RX_OERR   0x000115    program     static C:\Users\Rebeca Alvarado\Documents\Licenciatura\7Semestre\LEnsamblador\00PAlarma\AlarmaTablero-UART.X\UART_LIB.asm
                SERV_TMR0   0x0001a9    program     static C:\Users\Rebeca Alvarado\Documents\Licenciatura\7Semestre\LEnsamblador\00PAlarma\AlarmaTablero-UART.X\AlarmaTablero-UART.asm
               SHOW_ERROR   0x000264    program     static C:\Users\Rebeca Alvarado\Documents\Licenciatura\7Semestre\LEnsamblador\00PAlarma\AlarmaTablero-UART.X\AlarmaTablero-UART.asm
                  SIGUEMM   0x00012a    program     static C:\Users\Rebeca Alvarado\Documents\Licenciatura\7Semestre\LEnsamblador\00PAlarma\AlarmaTablero-UART.X\AlarmaTablero-UART.asm
                     TONO   0x00005d    program     static C:\Users\Rebeca Alvarado\Documents\Licenciatura\7Semestre\LEnsamblador\00PAlarma\AlarmaTablero-UART.X\kbd_cxx.asm
                  TRIGGER   0x0001b3    program     static C:\Users\Rebeca Alvarado\Documents\Licenciatura\7Semestre\LEnsamblador\00PAlarma\AlarmaTablero-UART.X\AlarmaTablero-UART.asm
              UART_ENVIAR   0x00010a    program     static C:\Users\Rebeca Alvarado\Documents\Licenciatura\7Semestre\LEnsamblador\00PAlarma\AlarmaTablero-UART.X\UART_LIB.asm
             UART_RECIBIR   0x00010f    program     static C:\Users\Rebeca Alvarado\Documents\Licenciatura\7Semestre\LEnsamblador\00PAlarma\AlarmaTablero-UART.X\UART_LIB.asm
                   UP_LCD   0x000005    program     static C:\Users\Rebeca Alvarado\Documents\Licenciatura\7Semestre\LEnsamblador\00PAlarma\AlarmaTablero-UART.X\lcd_cxx.asm
               WAIT_ARMAR   0x0000ec    program     static C:\Users\Rebeca Alvarado\Documents\Licenciatura\7Semestre\LEnsamblador\00PAlarma\AlarmaTablero-UART.X\mensajes_tablas.asm
               WLCOMPARAR   0x00011a    program     static C:\Users\Rebeca Alvarado\Documents\Licenciatura\7Semestre\LEnsamblador\00PAlarma\AlarmaTablero-UART.X\AlarmaTablero-UART.asm
                     WT_0   0x000243    program     static C:\Users\Rebeca Alvarado\Documents\Licenciatura\7Semestre\LEnsamblador\00PAlarma\AlarmaTablero-UART.X\AlarmaTablero-UART.asm
                 WT_ARMAR   0x000253    program     static C:\Users\Rebeca Alvarado\Documents\Licenciatura\7Semestre\LEnsamblador\00PAlarma\AlarmaTablero-UART.X\AlarmaTablero-UART.asm
                    WT_S2   0x0001d9    program     static C:\Users\Rebeca Alvarado\Documents\Licenciatura\7Semestre\LEnsamblador\00PAlarma\AlarmaTablero-UART.X\AlarmaTablero-UART.asm
                    WT_S3   0x0001d6    program     static C:\Users\Rebeca Alvarado\Documents\Licenciatura\7Semestre\LEnsamblador\00PAlarma\AlarmaTablero-UART.X\AlarmaTablero-UART.asm
                _11FINMEN   0x000195    program     static C:\Users\Rebeca Alvarado\Documents\Licenciatura\7Semestre\LEnsamblador\00PAlarma\AlarmaTablero-UART.X\AlarmaTablero-UART.asm
                  _11LAZO   0x00018e    program     static C:\Users\Rebeca Alvarado\Documents\Licenciatura\7Semestre\LEnsamblador\00PAlarma\AlarmaTablero-UART.X\AlarmaTablero-UART.asm
                _15FINMEN   0x0001c6    program     static C:\Users\Rebeca Alvarado\Documents\Licenciatura\7Semestre\LEnsamblador\00PAlarma\AlarmaTablero-UART.X\AlarmaTablero-UART.asm
                  _15LAZO   0x0001bf    program     static C:\Users\Rebeca Alvarado\Documents\Licenciatura\7Semestre\LEnsamblador\00PAlarma\AlarmaTablero-UART.X\AlarmaTablero-UART.asm
                _17FINMEN   0x0001ea    program     static C:\Users\Rebeca Alvarado\Documents\Licenciatura\7Semestre\LEnsamblador\00PAlarma\AlarmaTablero-UART.X\AlarmaTablero-UART.asm
                  _17LAZO   0x0001e3    program     static C:\Users\Rebeca Alvarado\Documents\Licenciatura\7Semestre\LEnsamblador\00PAlarma\AlarmaTablero-UART.X\AlarmaTablero-UART.asm
                _18FINMEN   0x000201    program     static C:\Users\Rebeca Alvarado\Documents\Licenciatura\7Semestre\LEnsamblador\00PAlarma\AlarmaTablero-UART.X\AlarmaTablero-UART.asm
                  _18LAZO   0x0001fa    program     static C:\Users\Rebeca Alvarado\Documents\Licenciatura\7Semestre\LEnsamblador\00PAlarma\AlarmaTablero-UART.X\AlarmaTablero-UART.asm
              _19delayaso   0x000205    program     static C:\Users\Rebeca Alvarado\Documents\Licenciatura\7Semestre\LEnsamblador\00PAlarma\AlarmaTablero-UART.X\AlarmaTablero-UART.asm
                _20FINMEN   0x000215    program     static C:\Users\Rebeca Alvarado\Documents\Licenciatura\7Semestre\LEnsamblador\00PAlarma\AlarmaTablero-UART.X\AlarmaTablero-UART.asm
                  _20LAZO   0x00020e    program     static C:\Users\Rebeca Alvarado\Documents\Licenciatura\7Semestre\LEnsamblador\00PAlarma\AlarmaTablero-UART.X\AlarmaTablero-UART.asm
              _21delayaso   0x000219    program     static C:\Users\Rebeca Alvarado\Documents\Licenciatura\7Semestre\LEnsamblador\00PAlarma\AlarmaTablero-UART.X\AlarmaTablero-UART.asm
                _22FINMEN   0x000229    program     static C:\Users\Rebeca Alvarado\Documents\Licenciatura\7Semestre\LEnsamblador\00PAlarma\AlarmaTablero-UART.X\AlarmaTablero-UART.asm
                  _22LAZO   0x000222    program     static C:\Users\Rebeca Alvarado\Documents\Licenciatura\7Semestre\LEnsamblador\00PAlarma\AlarmaTablero-UART.X\AlarmaTablero-UART.asm
                _23FINMEN   0x000236    program     static C:\Users\Rebeca Alvarado\Documents\Licenciatura\7Semestre\LEnsamblador\00PAlarma\AlarmaTablero-UART.X\AlarmaTablero-UART.asm
                  _23LAZO   0x00022f    program     static C:\Users\Rebeca Alvarado\Documents\Licenciatura\7Semestre\LEnsamblador\00PAlarma\AlarmaTablero-UART.X\AlarmaTablero-UART.asm
              _25delayaso   0x000240    program     static C:\Users\Rebeca Alvarado\Documents\Licenciatura\7Semestre\LEnsamblador\00PAlarma\AlarmaTablero-UART.X\AlarmaTablero-UART.asm
                _26FINMEN   0x00024e    program     static C:\Users\Rebeca Alvarado\Documents\Licenciatura\7Semestre\LEnsamblador\00PAlarma\AlarmaTablero-UART.X\AlarmaTablero-UART.asm
                  _26LAZO   0x000247    program     static C:\Users\Rebeca Alvarado\Documents\Licenciatura\7Semestre\LEnsamblador\00PAlarma\AlarmaTablero-UART.X\AlarmaTablero-UART.asm
                _28FINMEN   0x000276    program     static C:\Users\Rebeca Alvarado\Documents\Licenciatura\7Semestre\LEnsamblador\00PAlarma\AlarmaTablero-UART.X\AlarmaTablero-UART.asm
                  _28LAZO   0x00026f    program     static C:\Users\Rebeca Alvarado\Documents\Licenciatura\7Semestre\LEnsamblador\00PAlarma\AlarmaTablero-UART.X\AlarmaTablero-UART.asm
                 _9FINMEN   0x000160    program     static C:\Users\Rebeca Alvarado\Documents\Licenciatura\7Semestre\LEnsamblador\00PAlarma\AlarmaTablero-UART.X\AlarmaTablero-UART.asm
                   _9LAZO   0x000159    program     static C:\Users\Rebeca Alvarado\Documents\Licenciatura\7Semestre\LEnsamblador\00PAlarma\AlarmaTablero-UART.X\AlarmaTablero-UART.asm
                     main   0x00023b    program     static C:\Users\Rebeca Alvarado\Documents\Licenciatura\7Semestre\LEnsamblador\00PAlarma\AlarmaTablero-UART.X\AlarmaTablero-UART.asm
               nueva_otra   0x0001ba    program     static C:\Users\Rebeca Alvarado\Documents\Licenciatura\7Semestre\LEnsamblador\00PAlarma\AlarmaTablero-UART.X\AlarmaTablero-UART.asm
                     wtRF   0x0001ef    program     static C:\Users\Rebeca Alvarado\Documents\Licenciatura\7Semestre\LEnsamblador\00PAlarma\AlarmaTablero-UART.X\AlarmaTablero-UART.asm
                  wtR_pin   0x0001c8    program     static C:\Users\Rebeca Alvarado\Documents\Licenciatura\7Semestre\LEnsamblador\00PAlarma\AlarmaTablero-UART.X\AlarmaTablero-UART.asm
                      wtT   0x00010b    program     static C:\Users\Rebeca Alvarado\Documents\Licenciatura\7Semestre\LEnsamblador\00PAlarma\AlarmaTablero-UART.X\UART_LIB.asm



                              Symbols - Sorted by Address
                     Name    Address   Location    Storage File                     
                ---------  ---------  ---------  --------- ---------                
                   UP_LCD   0x000005    program     static C:\Users\Rebeca Alvarado\Documents\Licenciatura\7Semestre\LEnsamblador\00PAlarma\AlarmaTablero-UART.X\lcd_cxx.asm
                 LCD_BUSY   0x00000c    program     static C:\Users\Rebeca Alvarado\Documents\Licenciatura\7Semestre\LEnsamblador\00PAlarma\AlarmaTablero-UART.X\lcd_cxx.asm
                   L_BUSY   0x000017    program     static C:\Users\Rebeca Alvarado\Documents\Licenciatura\7Semestre\LEnsamblador\00PAlarma\AlarmaTablero-UART.X\lcd_cxx.asm
                    LCD_E   0x00001f    program     static C:\Users\Rebeca Alvarado\Documents\Licenciatura\7Semestre\LEnsamblador\00PAlarma\AlarmaTablero-UART.X\lcd_cxx.asm
                 LCD_DATO   0x000027    program     static C:\Users\Rebeca Alvarado\Documents\Licenciatura\7Semestre\LEnsamblador\00PAlarma\AlarmaTablero-UART.X\lcd_cxx.asm
                  LCD_REG   0x00002d    program     static C:\Users\Rebeca Alvarado\Documents\Licenciatura\7Semestre\LEnsamblador\00PAlarma\AlarmaTablero-UART.X\lcd_cxx.asm
                  LCD_INI   0x000032    program     static C:\Users\Rebeca Alvarado\Documents\Licenciatura\7Semestre\LEnsamblador\00PAlarma\AlarmaTablero-UART.X\lcd_cxx.asm
             BORRA_Y_HOME   0x00003c    program     static C:\Users\Rebeca Alvarado\Documents\Licenciatura\7Semestre\LEnsamblador\00PAlarma\AlarmaTablero-UART.X\lcd_cxx.asm
       DISPLAY_ON_CUR_OFF   0x00003f    program     static C:\Users\Rebeca Alvarado\Documents\Licenciatura\7Semestre\LEnsamblador\00PAlarma\AlarmaTablero-UART.X\lcd_cxx.asm
                LCD_DELAY   0x000042    program     static C:\Users\Rebeca Alvarado\Documents\Licenciatura\7Semestre\LEnsamblador\00PAlarma\AlarmaTablero-UART.X\lcd_cxx.asm
              LCD_DELAY_1   0x000046    program     static C:\Users\Rebeca Alvarado\Documents\Licenciatura\7Semestre\LEnsamblador\00PAlarma\AlarmaTablero-UART.X\lcd_cxx.asm
                  KEY_TAB   0x00004b    program     static C:\Users\Rebeca Alvarado\Documents\Licenciatura\7Semestre\LEnsamblador\00PAlarma\AlarmaTablero-UART.X\kbd_cxx.asm
                     TONO   0x00005d    program     static C:\Users\Rebeca Alvarado\Documents\Licenciatura\7Semestre\LEnsamblador\00PAlarma\AlarmaTablero-UART.X\kbd_cxx.asm
                  KBD_INI   0x00006f    program     static C:\Users\Rebeca Alvarado\Documents\Licenciatura\7Semestre\LEnsamblador\00PAlarma\AlarmaTablero-UART.X\kbd_cxx.asm
                KBD_BARRE   0x000076    program     static C:\Users\Rebeca Alvarado\Documents\Licenciatura\7Semestre\LEnsamblador\00PAlarma\AlarmaTablero-UART.X\kbd_cxx.asm
                   BARRE1   0x000078    program     static C:\Users\Rebeca Alvarado\Documents\Licenciatura\7Semestre\LEnsamblador\00PAlarma\AlarmaTablero-UART.X\kbd_cxx.asm
                 BARREFIN   0x00008f    program     static C:\Users\Rebeca Alvarado\Documents\Licenciatura\7Semestre\LEnsamblador\00PAlarma\AlarmaTablero-UART.X\kbd_cxx.asm
                KBD_VALID   0x000090    program     static C:\Users\Rebeca Alvarado\Documents\Licenciatura\7Semestre\LEnsamblador\00PAlarma\AlarmaTablero-UART.X\kbd_cxx.asm
                  KBD_NUM   0x000098    program     static C:\Users\Rebeca Alvarado\Documents\Licenciatura\7Semestre\LEnsamblador\00PAlarma\AlarmaTablero-UART.X\kbd_cxx.asm
                     NUM1   0x000099    program     static C:\Users\Rebeca Alvarado\Documents\Licenciatura\7Semestre\LEnsamblador\00PAlarma\AlarmaTablero-UART.X\kbd_cxx.asm
                   NUMFIN   0x00009f    program     static C:\Users\Rebeca Alvarado\Documents\Licenciatura\7Semestre\LEnsamblador\00PAlarma\AlarmaTablero-UART.X\kbd_cxx.asm
                 KBD_TONO   0x0000a0    program     static C:\Users\Rebeca Alvarado\Documents\Licenciatura\7Semestre\LEnsamblador\00PAlarma\AlarmaTablero-UART.X\kbd_cxx.asm
                  KBD_LIB   0x0000ac    program     static C:\Users\Rebeca Alvarado\Documents\Licenciatura\7Semestre\LEnsamblador\00PAlarma\AlarmaTablero-UART.X\kbd_cxx.asm
                HEX_ASCII   0x0000b2    program     static C:\Users\Rebeca Alvarado\Documents\Licenciatura\7Semestre\LEnsamblador\00PAlarma\AlarmaTablero-UART.X\mensajes_tablas.asm
                   CODIGO   0x0000c4    program     static C:\Users\Rebeca Alvarado\Documents\Licenciatura\7Semestre\LEnsamblador\00PAlarma\AlarmaTablero-UART.X\mensajes_tablas.asm
                 ACEPTADO   0x0000cc    program     static C:\Users\Rebeca Alvarado\Documents\Licenciatura\7Semestre\LEnsamblador\00PAlarma\AlarmaTablero-UART.X\mensajes_tablas.asm
                MSG_ERROR   0x0000d4    program     static C:\Users\Rebeca Alvarado\Documents\Licenciatura\7Semestre\LEnsamblador\00PAlarma\AlarmaTablero-UART.X\mensajes_tablas.asm
                     NADA   0x0000dc    program     static C:\Users\Rebeca Alvarado\Documents\Licenciatura\7Semestre\LEnsamblador\00PAlarma\AlarmaTablero-UART.X\mensajes_tablas.asm
                    NUEVO   0x0000e3    program     static C:\Users\Rebeca Alvarado\Documents\Licenciatura\7Semestre\LEnsamblador\00PAlarma\AlarmaTablero-UART.X\mensajes_tablas.asm
               WAIT_ARMAR   0x0000ec    program     static C:\Users\Rebeca Alvarado\Documents\Licenciatura\7Semestre\LEnsamblador\00PAlarma\AlarmaTablero-UART.X\mensajes_tablas.asm
                    BLOCK   0x0000f4    program     static C:\Users\Rebeca Alvarado\Documents\Licenciatura\7Semestre\LEnsamblador\00PAlarma\AlarmaTablero-UART.X\mensajes_tablas.asm
                INIT_UART   0x0000fc    program     static C:\Users\Rebeca Alvarado\Documents\Licenciatura\7Semestre\LEnsamblador\00PAlarma\AlarmaTablero-UART.X\UART_LIB.asm
              UART_ENVIAR   0x00010a    program     static C:\Users\Rebeca Alvarado\Documents\Licenciatura\7Semestre\LEnsamblador\00PAlarma\AlarmaTablero-UART.X\UART_LIB.asm
                      wtT   0x00010b    program     static C:\Users\Rebeca Alvarado\Documents\Licenciatura\7Semestre\LEnsamblador\00PAlarma\AlarmaTablero-UART.X\UART_LIB.asm
             UART_RECIBIR   0x00010f    program     static C:\Users\Rebeca Alvarado\Documents\Licenciatura\7Semestre\LEnsamblador\00PAlarma\AlarmaTablero-UART.X\UART_LIB.asm
                  RX_OERR   0x000115    program     static C:\Users\Rebeca Alvarado\Documents\Licenciatura\7Semestre\LEnsamblador\00PAlarma\AlarmaTablero-UART.X\UART_LIB.asm
           COMPARAR_ARRAY   0x000118    program     static C:\Users\Rebeca Alvarado\Documents\Licenciatura\7Semestre\LEnsamblador\00PAlarma\AlarmaTablero-UART.X\AlarmaTablero-UART.asm
               WLCOMPARAR   0x00011a    program     static C:\Users\Rebeca Alvarado\Documents\Licenciatura\7Semestre\LEnsamblador\00PAlarma\AlarmaTablero-UART.X\AlarmaTablero-UART.asm
                  MatchMM   0x000129    program     static C:\Users\Rebeca Alvarado\Documents\Licenciatura\7Semestre\LEnsamblador\00PAlarma\AlarmaTablero-UART.X\AlarmaTablero-UART.asm
                  SIGUEMM   0x00012a    program     static C:\Users\Rebeca Alvarado\Documents\Licenciatura\7Semestre\LEnsamblador\00PAlarma\AlarmaTablero-UART.X\AlarmaTablero-UART.asm
                     FINC   0x000130    program     static C:\Users\Rebeca Alvarado\Documents\Licenciatura\7Semestre\LEnsamblador\00PAlarma\AlarmaTablero-UART.X\AlarmaTablero-UART.asm
                    IGUAL   0x000135    program     static C:\Users\Rebeca Alvarado\Documents\Licenciatura\7Semestre\LEnsamblador\00PAlarma\AlarmaTablero-UART.X\AlarmaTablero-UART.asm
                     DIFF   0x000137    program     static C:\Users\Rebeca Alvarado\Documents\Licenciatura\7Semestre\LEnsamblador\00PAlarma\AlarmaTablero-UART.X\AlarmaTablero-UART.asm
               INICIALIZA   0x000139    program     static C:\Users\Rebeca Alvarado\Documents\Licenciatura\7Semestre\LEnsamblador\00PAlarma\AlarmaTablero-UART.X\AlarmaTablero-UART.asm
                   _9LAZO   0x000159    program     static C:\Users\Rebeca Alvarado\Documents\Licenciatura\7Semestre\LEnsamblador\00PAlarma\AlarmaTablero-UART.X\AlarmaTablero-UART.asm
                 _9FINMEN   0x000160    program     static C:\Users\Rebeca Alvarado\Documents\Licenciatura\7Semestre\LEnsamblador\00PAlarma\AlarmaTablero-UART.X\AlarmaTablero-UART.asm
                    DELAY   0x000164    program     static C:\Users\Rebeca Alvarado\Documents\Licenciatura\7Semestre\LEnsamblador\00PAlarma\AlarmaTablero-UART.X\AlarmaTablero-UART.asm
                     DEL2   0x000166    program     static C:\Users\Rebeca Alvarado\Documents\Licenciatura\7Semestre\LEnsamblador\00PAlarma\AlarmaTablero-UART.X\AlarmaTablero-UART.asm
                     DEL1   0x000168    program     static C:\Users\Rebeca Alvarado\Documents\Licenciatura\7Semestre\LEnsamblador\00PAlarma\AlarmaTablero-UART.X\AlarmaTablero-UART.asm
                    GranD   0x00016d    program     static C:\Users\Rebeca Alvarado\Documents\Licenciatura\7Semestre\LEnsamblador\00PAlarma\AlarmaTablero-UART.X\AlarmaTablero-UART.asm
                    INTER   0x000179    program     static C:\Users\Rebeca Alvarado\Documents\Licenciatura\7Semestre\LEnsamblador\00PAlarma\AlarmaTablero-UART.X\AlarmaTablero-UART.asm
                 INT_TMR0   0x00017f    program     static C:\Users\Rebeca Alvarado\Documents\Licenciatura\7Semestre\LEnsamblador\00PAlarma\AlarmaTablero-UART.X\AlarmaTablero-UART.asm
                  FIN_INT   0x000183    program     static C:\Users\Rebeca Alvarado\Documents\Licenciatura\7Semestre\LEnsamblador\00PAlarma\AlarmaTablero-UART.X\AlarmaTablero-UART.asm
                 INIT_RES   0x000185    program     static C:\Users\Rebeca Alvarado\Documents\Licenciatura\7Semestre\LEnsamblador\00PAlarma\AlarmaTablero-UART.X\AlarmaTablero-UART.asm
                  _11LAZO   0x00018e    program     static C:\Users\Rebeca Alvarado\Documents\Licenciatura\7Semestre\LEnsamblador\00PAlarma\AlarmaTablero-UART.X\AlarmaTablero-UART.asm
                _11FINMEN   0x000195    program     static C:\Users\Rebeca Alvarado\Documents\Licenciatura\7Semestre\LEnsamblador\00PAlarma\AlarmaTablero-UART.X\AlarmaTablero-UART.asm
                  KBD_LCD   0x00019a    program     static C:\Users\Rebeca Alvarado\Documents\Licenciatura\7Semestre\LEnsamblador\00PAlarma\AlarmaTablero-UART.X\AlarmaTablero-UART.asm
                KB_LC_FIN   0x0001a8    program     static C:\Users\Rebeca Alvarado\Documents\Licenciatura\7Semestre\LEnsamblador\00PAlarma\AlarmaTablero-UART.X\AlarmaTablero-UART.asm
                SERV_TMR0   0x0001a9    program     static C:\Users\Rebeca Alvarado\Documents\Licenciatura\7Semestre\LEnsamblador\00PAlarma\AlarmaTablero-UART.X\AlarmaTablero-UART.asm
                    APAGA   0x0001ad    program     static C:\Users\Rebeca Alvarado\Documents\Licenciatura\7Semestre\LEnsamblador\00PAlarma\AlarmaTablero-UART.X\AlarmaTablero-UART.asm
                 CONTINUA   0x0001ae    program     static C:\Users\Rebeca Alvarado\Documents\Licenciatura\7Semestre\LEnsamblador\00PAlarma\AlarmaTablero-UART.X\AlarmaTablero-UART.asm
                  TRIGGER   0x0001b3    program     static C:\Users\Rebeca Alvarado\Documents\Licenciatura\7Semestre\LEnsamblador\00PAlarma\AlarmaTablero-UART.X\AlarmaTablero-UART.asm
                NUEVO_PIN   0x0001ba    program     static C:\Users\Rebeca Alvarado\Documents\Licenciatura\7Semestre\LEnsamblador\00PAlarma\AlarmaTablero-UART.X\AlarmaTablero-UART.asm
               nueva_otra   0x0001ba    program     static C:\Users\Rebeca Alvarado\Documents\Licenciatura\7Semestre\LEnsamblador\00PAlarma\AlarmaTablero-UART.X\AlarmaTablero-UART.asm
                  _15LAZO   0x0001bf    program     static C:\Users\Rebeca Alvarado\Documents\Licenciatura\7Semestre\LEnsamblador\00PAlarma\AlarmaTablero-UART.X\AlarmaTablero-UART.asm
                _15FINMEN   0x0001c6    program     static C:\Users\Rebeca Alvarado\Documents\Licenciatura\7Semestre\LEnsamblador\00PAlarma\AlarmaTablero-UART.X\AlarmaTablero-UART.asm
                  wtR_pin   0x0001c8    program     static C:\Users\Rebeca Alvarado\Documents\Licenciatura\7Semestre\LEnsamblador\00PAlarma\AlarmaTablero-UART.X\AlarmaTablero-UART.asm
                    WT_S3   0x0001d6    program     static C:\Users\Rebeca Alvarado\Documents\Licenciatura\7Semestre\LEnsamblador\00PAlarma\AlarmaTablero-UART.X\AlarmaTablero-UART.asm
                    WT_S2   0x0001d9    program     static C:\Users\Rebeca Alvarado\Documents\Licenciatura\7Semestre\LEnsamblador\00PAlarma\AlarmaTablero-UART.X\AlarmaTablero-UART.asm
                  FIN_PIN   0x0001dc    program     static C:\Users\Rebeca Alvarado\Documents\Licenciatura\7Semestre\LEnsamblador\00PAlarma\AlarmaTablero-UART.X\AlarmaTablero-UART.asm
             INCORRECTO_3   0x0001dd    program     static C:\Users\Rebeca Alvarado\Documents\Licenciatura\7Semestre\LEnsamblador\00PAlarma\AlarmaTablero-UART.X\AlarmaTablero-UART.asm
                  _17LAZO   0x0001e3    program     static C:\Users\Rebeca Alvarado\Documents\Licenciatura\7Semestre\LEnsamblador\00PAlarma\AlarmaTablero-UART.X\AlarmaTablero-UART.asm
                _17FINMEN   0x0001ea    program     static C:\Users\Rebeca Alvarado\Documents\Licenciatura\7Semestre\LEnsamblador\00PAlarma\AlarmaTablero-UART.X\AlarmaTablero-UART.asm
              DESBLOQUEAR   0x0001ef    program     static C:\Users\Rebeca Alvarado\Documents\Licenciatura\7Semestre\LEnsamblador\00PAlarma\AlarmaTablero-UART.X\AlarmaTablero-UART.asm
                     wtRF   0x0001ef    program     static C:\Users\Rebeca Alvarado\Documents\Licenciatura\7Semestre\LEnsamblador\00PAlarma\AlarmaTablero-UART.X\AlarmaTablero-UART.asm
                  PIN_MAL   0x0001f6    program     static C:\Users\Rebeca Alvarado\Documents\Licenciatura\7Semestre\LEnsamblador\00PAlarma\AlarmaTablero-UART.X\AlarmaTablero-UART.asm
                  _18LAZO   0x0001fa    program     static C:\Users\Rebeca Alvarado\Documents\Licenciatura\7Semestre\LEnsamblador\00PAlarma\AlarmaTablero-UART.X\AlarmaTablero-UART.asm
                _18FINMEN   0x000201    program     static C:\Users\Rebeca Alvarado\Documents\Licenciatura\7Semestre\LEnsamblador\00PAlarma\AlarmaTablero-UART.X\AlarmaTablero-UART.asm
              _19delayaso   0x000205    program     static C:\Users\Rebeca Alvarado\Documents\Licenciatura\7Semestre\LEnsamblador\00PAlarma\AlarmaTablero-UART.X\AlarmaTablero-UART.asm
                   PIN_OK   0x00020a    program     static C:\Users\Rebeca Alvarado\Documents\Licenciatura\7Semestre\LEnsamblador\00PAlarma\AlarmaTablero-UART.X\AlarmaTablero-UART.asm
                  _20LAZO   0x00020e    program     static C:\Users\Rebeca Alvarado\Documents\Licenciatura\7Semestre\LEnsamblador\00PAlarma\AlarmaTablero-UART.X\AlarmaTablero-UART.asm
                _20FINMEN   0x000215    program     static C:\Users\Rebeca Alvarado\Documents\Licenciatura\7Semestre\LEnsamblador\00PAlarma\AlarmaTablero-UART.X\AlarmaTablero-UART.asm
              _21delayaso   0x000219    program     static C:\Users\Rebeca Alvarado\Documents\Licenciatura\7Semestre\LEnsamblador\00PAlarma\AlarmaTablero-UART.X\AlarmaTablero-UART.asm
                 ACTIVADA   0x00021d    program     static C:\Users\Rebeca Alvarado\Documents\Licenciatura\7Semestre\LEnsamblador\00PAlarma\AlarmaTablero-UART.X\AlarmaTablero-UART.asm
                  _22LAZO   0x000222    program     static C:\Users\Rebeca Alvarado\Documents\Licenciatura\7Semestre\LEnsamblador\00PAlarma\AlarmaTablero-UART.X\AlarmaTablero-UART.asm
                _22FINMEN   0x000229    program     static C:\Users\Rebeca Alvarado\Documents\Licenciatura\7Semestre\LEnsamblador\00PAlarma\AlarmaTablero-UART.X\AlarmaTablero-UART.asm
                  _23LAZO   0x00022f    program     static C:\Users\Rebeca Alvarado\Documents\Licenciatura\7Semestre\LEnsamblador\00PAlarma\AlarmaTablero-UART.X\AlarmaTablero-UART.asm
                _23FINMEN   0x000236    program     static C:\Users\Rebeca Alvarado\Documents\Licenciatura\7Semestre\LEnsamblador\00PAlarma\AlarmaTablero-UART.X\AlarmaTablero-UART.asm
                     main   0x00023b    program     static C:\Users\Rebeca Alvarado\Documents\Licenciatura\7Semestre\LEnsamblador\00PAlarma\AlarmaTablero-UART.X\AlarmaTablero-UART.asm
              _25delayaso   0x000240    program     static C:\Users\Rebeca Alvarado\Documents\Licenciatura\7Semestre\LEnsamblador\00PAlarma\AlarmaTablero-UART.X\AlarmaTablero-UART.asm
                     WT_0   0x000243    program     static C:\Users\Rebeca Alvarado\Documents\Licenciatura\7Semestre\LEnsamblador\00PAlarma\AlarmaTablero-UART.X\AlarmaTablero-UART.asm
                  _26LAZO   0x000247    program     static C:\Users\Rebeca Alvarado\Documents\Licenciatura\7Semestre\LEnsamblador\00PAlarma\AlarmaTablero-UART.X\AlarmaTablero-UART.asm
                _26FINMEN   0x00024e    program     static C:\Users\Rebeca Alvarado\Documents\Licenciatura\7Semestre\LEnsamblador\00PAlarma\AlarmaTablero-UART.X\AlarmaTablero-UART.asm
                 WT_ARMAR   0x000253    program     static C:\Users\Rebeca Alvarado\Documents\Licenciatura\7Semestre\LEnsamblador\00PAlarma\AlarmaTablero-UART.X\AlarmaTablero-UART.asm
                    LOOP1   0x000256    program     static C:\Users\Rebeca Alvarado\Documents\Licenciatura\7Semestre\LEnsamblador\00PAlarma\AlarmaTablero-UART.X\AlarmaTablero-UART.asm
                   CHECAR   0x00025b    program     static C:\Users\Rebeca Alvarado\Documents\Licenciatura\7Semestre\LEnsamblador\00PAlarma\AlarmaTablero-UART.X\AlarmaTablero-UART.asm
               SHOW_ERROR   0x000264    program     static C:\Users\Rebeca Alvarado\Documents\Licenciatura\7Semestre\LEnsamblador\00PAlarma\AlarmaTablero-UART.X\AlarmaTablero-UART.asm
                     PASS   0x00026a    program     static C:\Users\Rebeca Alvarado\Documents\Licenciatura\7Semestre\LEnsamblador\00PAlarma\AlarmaTablero-UART.X\AlarmaTablero-UART.asm
                  _28LAZO   0x00026f    program     static C:\Users\Rebeca Alvarado\Documents\Licenciatura\7Semestre\LEnsamblador\00PAlarma\AlarmaTablero-UART.X\AlarmaTablero-UART.asm
                _28FINMEN   0x000276    program     static C:\Users\Rebeca Alvarado\Documents\Licenciatura\7Semestre\LEnsamblador\00PAlarma\AlarmaTablero-UART.X\AlarmaTablero-UART.asm
                    LOOP2   0x000278    program     static C:\Users\Rebeca Alvarado\Documents\Licenciatura\7Semestre\LEnsamblador\00PAlarma\AlarmaTablero-UART.X\AlarmaTablero-UART.asm


